	.file	"main.cpp"
	.intel_syntax noprefix
	.text
Ltext0:
	.cfi_sections	.debug_frame
	.section .rdata,"dr"
__ZStL19piecewise_construct:
	.space 1
	.text
	.def	__ZL6printfPKcz;	.scl	3;	.type	32;	.endef
__ZL6printfPKcz:
LFB885:
	.file 1 "/usr/i686-w64-mingw32/sys-root/mingw/include/stdio.h"
	.loc 1 297 0
	.cfi_startproc
	push	ebp
	.cfi_def_cfa_offset 8
	.cfi_offset 5, -8
	mov	ebp, esp
	.cfi_def_cfa_register 5
	push	ebx
	sub	esp, 36
	.cfi_offset 3, -12
LBB2:
	.loc 1 299 0
	lea	eax, [ebp+12]
	mov	DWORD PTR [ebp-12], eax
	.loc 1 300 0
	mov	eax, DWORD PTR [ebp-12]
	mov	DWORD PTR [esp+4], eax
	mov	eax, DWORD PTR [ebp+8]
	mov	DWORD PTR [esp], eax
	call	___mingw_vprintf
	mov	ebx, eax
	.loc 1 302 0
	mov	eax, ebx
LBE2:
	.loc 1 303 0
	add	esp, 36
	pop	ebx
	.cfi_restore 3
	pop	ebp
	.cfi_restore 5
	.cfi_def_cfa 4, 4
	ret
	.cfi_endproc
LFE885:
.lcomm __ZStL8__ioinit,1,1
	.globl	__ZN3seh11originalSEHE
	.bss
	.align 4
__ZN3seh11originalSEHE:
	.space 4
	.section .rdata,"dr"
	.align 4
LC0:
	.ascii "CONTEXT(%p):\12 ContextFlags=%lx\12 Dr0=%lx\12 Dr1=%lx\12 Dr2=%lx\12 Dr3=%lx\12 Dr6=%lx\12 Dr7=%lx\12 SegGs=%lx\12 SegFs=%lx\12 SegEs=%lx\12 SegDs=%lx\12 Edi=%lx\12 Esi=%lx\12 Ebx=%lx\12 Edx=%lx\12 Ecx=%lx\12 Eax=%lx\12 Ebp=%lx\12 Eip=%lx\12 SegCs=%lx\12 EFlags=%lx\12 Esp=%lx\12 SegSs=%lx\12\0"
	.text
	.globl	__ZN3seh9print_ctxEPK8_CONTEXT
	.def	__ZN3seh9print_ctxEPK8_CONTEXT;	.scl	2;	.type	32;	.endef
__ZN3seh9print_ctxEPK8_CONTEXT:
LFB1764:
	.file 2 "seh.h"
	.loc 2 23 0
	.cfi_startproc
	push	ebp
	.cfi_def_cfa_offset 8
	.cfi_offset 5, -8
	mov	ebp, esp
	.cfi_def_cfa_register 5
	push	edi
	push	esi
	push	ebx
	sub	esp, 204
	.cfi_offset 7, -12
	.cfi_offset 6, -16
	.cfi_offset 3, -20
	.loc 2 71 0
	mov	eax, DWORD PTR [ebp+8]
	mov	eax, DWORD PTR [eax+200]
	mov	edx, eax
	mov	eax, DWORD PTR [ebp+8]
	mov	eax, DWORD PTR [eax+196]
	mov	DWORD PTR [ebp-28], eax
	mov	eax, DWORD PTR [ebp+8]
	mov	ecx, DWORD PTR [eax+192]
	mov	DWORD PTR [ebp-32], ecx
	mov	eax, DWORD PTR [ebp+8]
	mov	ebx, DWORD PTR [eax+188]
	mov	DWORD PTR [ebp-36], ebx
	mov	eax, DWORD PTR [ebp+8]
	mov	esi, DWORD PTR [eax+184]
	mov	DWORD PTR [ebp-40], esi
	mov	eax, DWORD PTR [ebp+8]
	mov	edi, DWORD PTR [eax+180]
	mov	DWORD PTR [ebp-44], edi
	mov	eax, DWORD PTR [ebp+8]
	mov	eax, DWORD PTR [eax+176]
	mov	DWORD PTR [ebp-48], eax
	mov	eax, DWORD PTR [ebp+8]
	mov	ecx, DWORD PTR [eax+172]
	mov	DWORD PTR [ebp-52], ecx
	mov	eax, DWORD PTR [ebp+8]
	mov	ebx, DWORD PTR [eax+168]
	mov	DWORD PTR [ebp-56], ebx
	mov	eax, DWORD PTR [ebp+8]
	mov	esi, DWORD PTR [eax+164]
	mov	DWORD PTR [ebp-60], esi
	mov	eax, DWORD PTR [ebp+8]
	mov	edi, DWORD PTR [eax+160]
	mov	DWORD PTR [ebp-64], edi
	mov	eax, DWORD PTR [ebp+8]
	mov	eax, DWORD PTR [eax+156]
	mov	DWORD PTR [ebp-68], eax
	mov	eax, DWORD PTR [ebp+8]
	mov	ecx, DWORD PTR [eax+152]
	mov	DWORD PTR [ebp-72], ecx
	mov	eax, DWORD PTR [ebp+8]
	mov	ebx, DWORD PTR [eax+148]
	mov	DWORD PTR [ebp-76], ebx
	mov	eax, DWORD PTR [ebp+8]
	mov	esi, DWORD PTR [eax+144]
	mov	DWORD PTR [ebp-80], esi
	mov	eax, DWORD PTR [ebp+8]
	mov	edi, DWORD PTR [eax+140]
	mov	DWORD PTR [ebp-84], edi
	mov	eax, DWORD PTR [ebp+8]
	mov	eax, DWORD PTR [eax+24]
	mov	DWORD PTR [ebp-88], eax
	mov	eax, DWORD PTR [ebp+8]
	mov	edi, DWORD PTR [eax+20]
	mov	eax, DWORD PTR [ebp+8]
	mov	esi, DWORD PTR [eax+16]
	mov	eax, DWORD PTR [ebp+8]
	mov	ebx, DWORD PTR [eax+12]
	mov	eax, DWORD PTR [ebp+8]
	mov	ecx, DWORD PTR [eax+8]
	mov	eax, DWORD PTR [ebp+8]
	mov	eax, DWORD PTR [eax+4]
	mov	DWORD PTR [ebp-92], eax
	mov	eax, DWORD PTR [ebp+8]
	mov	eax, DWORD PTR [eax]
	mov	DWORD PTR [esp+96], edx
	mov	edx, DWORD PTR [ebp-28]
	mov	DWORD PTR [esp+92], edx
	mov	edx, DWORD PTR [ebp-32]
	mov	DWORD PTR [esp+88], edx
	mov	edx, DWORD PTR [ebp-36]
	mov	DWORD PTR [esp+84], edx
	mov	edx, DWORD PTR [ebp-40]
	mov	DWORD PTR [esp+80], edx
	mov	edx, DWORD PTR [ebp-44]
	mov	DWORD PTR [esp+76], edx
	mov	edx, DWORD PTR [ebp-48]
	mov	DWORD PTR [esp+72], edx
	mov	edx, DWORD PTR [ebp-52]
	mov	DWORD PTR [esp+68], edx
	mov	edx, DWORD PTR [ebp-56]
	mov	DWORD PTR [esp+64], edx
	mov	edx, DWORD PTR [ebp-60]
	mov	DWORD PTR [esp+60], edx
	mov	edx, DWORD PTR [ebp-64]
	mov	DWORD PTR [esp+56], edx
	mov	edx, DWORD PTR [ebp-68]
	mov	DWORD PTR [esp+52], edx
	mov	edx, DWORD PTR [ebp-72]
	mov	DWORD PTR [esp+48], edx
	mov	edx, DWORD PTR [ebp-76]
	mov	DWORD PTR [esp+44], edx
	mov	edx, DWORD PTR [ebp-80]
	mov	DWORD PTR [esp+40], edx
	mov	edx, DWORD PTR [ebp-84]
	mov	DWORD PTR [esp+36], edx
	mov	edx, DWORD PTR [ebp-88]
	mov	DWORD PTR [esp+32], edx
	mov	DWORD PTR [esp+28], edi
	mov	DWORD PTR [esp+24], esi
	mov	DWORD PTR [esp+20], ebx
	mov	DWORD PTR [esp+16], ecx
	mov	ecx, DWORD PTR [ebp-92]
	mov	DWORD PTR [esp+12], ecx
	mov	DWORD PTR [esp+8], eax
	mov	eax, DWORD PTR [ebp+8]
	mov	DWORD PTR [esp+4], eax
	mov	DWORD PTR [esp], OFFSET FLAT:LC0
	call	__ZL6printfPKcz
	.loc 2 72 0
	add	esp, 204
	pop	ebx
	.cfi_restore 3
	pop	esi
	.cfi_restore 6
	pop	edi
	.cfi_restore 7
	pop	ebp
	.cfi_restore 5
	.cfi_def_cfa 4, 4
	ret
	.cfi_endproc
LFE1764:
	.section .rdata,"dr"
	.align 4
LC1:
	.ascii "EXCEPTION_RECORD(%p):\12 Address=%p\12 Code=%lx\12 Flags=%lx\12\0"
	.text
	.globl	__ZN3seh12print_exceptEPK17_EXCEPTION_RECORD
	.def	__ZN3seh12print_exceptEPK17_EXCEPTION_RECORD;	.scl	2;	.type	32;	.endef
__ZN3seh12print_exceptEPK17_EXCEPTION_RECORD:
LFB1765:
	.loc 2 74 0
	.cfi_startproc
	push	ebp
	.cfi_def_cfa_offset 8
	.cfi_offset 5, -8
	mov	ebp, esp
	.cfi_def_cfa_register 5
	sub	esp, 40
	.loc 2 83 0
	mov	eax, DWORD PTR [ebp+8]
	mov	ecx, DWORD PTR [eax+4]
	mov	eax, DWORD PTR [ebp+8]
	mov	edx, DWORD PTR [eax]
	mov	eax, DWORD PTR [ebp+8]
	mov	eax, DWORD PTR [eax+12]
	mov	DWORD PTR [esp+16], ecx
	mov	DWORD PTR [esp+12], edx
	mov	DWORD PTR [esp+8], eax
	mov	eax, DWORD PTR [ebp+8]
	mov	DWORD PTR [esp+4], eax
	mov	DWORD PTR [esp], OFFSET FLAT:LC1
	call	__ZL6printfPKcz
	.loc 2 84 0
	leave
	.cfi_restore 5
	.cfi_def_cfa 4, 4
	ret
	.cfi_endproc
LFE1765:
	.globl	__ZN3seh22landing_throw_unwinderEPvm@8
	.def	__ZN3seh22landing_throw_unwinderEPvm@8;	.scl	2;	.type	32;	.endef
__ZN3seh22landing_throw_unwinderEPvm@8:
LFB1766:
	.loc 2 86 0
	.cfi_startproc
	push	ebp
	.cfi_def_cfa_offset 8
	.cfi_offset 5, -8
	mov	ebp, esp
	.cfi_def_cfa_register 5
	sub	esp, 40
LBB3:
	.loc 2 95 0
/APP
 # 95 "seh.h" 1
	nop
 # 0 "" 2
	.loc 2 96 0
/NO_APP
	mov	DWORD PTR [ebp-16], 0
	mov	DWORD PTR [ebp-12], 0
	.loc 2 97 0
	mov	eax, DWORD PTR [ebp+8]
	mov	DWORD PTR [ebp-16], eax
	.loc 2 98 0
	mov	eax, DWORD PTR [ebp+12]
	mov	DWORD PTR [ebp-12], eax
	.loc 2 99 0
	mov	DWORD PTR [esp], 8
	call	___cxa_allocate_exception
	mov	ecx, eax
	mov	eax, DWORD PTR [ebp-16]
	mov	edx, DWORD PTR [ebp-12]
	mov	DWORD PTR [ecx], eax
	mov	DWORD PTR [ecx+4], edx
	mov	DWORD PTR [esp+8], 0
	mov	DWORD PTR [esp+4], OFFSET FLAT:__ZTI13SEH_EXCEPTION
	mov	DWORD PTR [esp], ecx
	call	___cxa_throw
LBE3:
	.cfi_endproc
LFE1766:
	.globl	__ZN3seh14except_handlerEP17_EXCEPTION_RECORDP30_EXCEPTION_REGISTRATION_RECORDP8_CONTEXTPS3_
	.def	__ZN3seh14except_handlerEP17_EXCEPTION_RECORDP30_EXCEPTION_REGISTRATION_RECORDP8_CONTEXTPS3_;	.scl	2;	.type	32;	.endef
__ZN3seh14except_handlerEP17_EXCEPTION_RECORDP30_EXCEPTION_REGISTRATION_RECORDP8_CONTEXTPS3_:
LFB1767:
	.loc 2 109 0
	.cfi_startproc
	push	ebp
	.cfi_def_cfa_offset 8
	.cfi_offset 5, -8
	mov	ebp, esp
	.cfi_def_cfa_register 5
	sub	esp, 40
LBB4:
	.loc 2 111 0
	mov	eax, DWORD PTR [ebp+8]
	mov	DWORD PTR [esp], eax
	call	__ZN3seh12print_exceptEPK17_EXCEPTION_RECORD
	.loc 2 115 0
	mov	eax, DWORD PTR [ebp+8]
	mov	eax, DWORD PTR [eax+4]
	and	eax, 6
	test	eax, eax
	je	L7
	.loc 2 116 0
	mov	eax, 3
	jmp	L8
L7:
	.loc 2 119 0
	mov	eax, DWORD PTR [ebp+8]
	mov	eax, DWORD PTR [eax+4]
	and	eax, 1
	test	eax, eax
	je	L9
	.loc 2 120 0
	mov	eax, 1
	jmp	L8
L9:
	.loc 2 123 0
	mov	DWORD PTR [ebp-12], OFFSET FLAT:__ZN3seh22landing_throw_unwinderEPvm@8
	.loc 2 131 0
	mov	eax, DWORD PTR [ebp+16]
	mov	eax, DWORD PTR [eax+196]
	lea	edx, [eax-4]
	mov	eax, DWORD PTR [ebp+16]
	mov	DWORD PTR [eax+196], edx
	.loc 2 132 0
	mov	eax, DWORD PTR [ebp+16]
	mov	eax, DWORD PTR [eax+196]
	mov	edx, eax
	mov	eax, DWORD PTR [ebp+8]
	mov	eax, DWORD PTR [eax]
	mov	DWORD PTR [edx], eax
	.loc 2 134 0
	mov	eax, DWORD PTR [ebp+16]
	mov	eax, DWORD PTR [eax+196]
	lea	edx, [eax-4]
	mov	eax, DWORD PTR [ebp+16]
	mov	DWORD PTR [eax+196], edx
	.loc 2 135 0
	mov	eax, DWORD PTR [ebp+16]
	mov	eax, DWORD PTR [eax+196]
	mov	edx, eax
	mov	eax, DWORD PTR [ebp+8]
	mov	eax, DWORD PTR [eax+12]
	mov	DWORD PTR [edx], eax
	.loc 2 137 0
	mov	eax, DWORD PTR [ebp+16]
	mov	eax, DWORD PTR [eax+196]
	lea	edx, [eax-4]
	mov	eax, DWORD PTR [ebp+16]
	mov	DWORD PTR [eax+196], edx
	.loc 2 138 0
	mov	eax, DWORD PTR [ebp+16]
	mov	eax, DWORD PTR [eax+196]
	mov	edx, eax
	mov	eax, DWORD PTR [ebp+16]
	mov	eax, DWORD PTR [eax+184]
	mov	DWORD PTR [edx], eax
	.loc 2 139 0
	mov	eax, DWORD PTR [ebp+16]
	mov	edx, DWORD PTR [ebp-12]
	mov	DWORD PTR [eax+184], edx
	.loc 2 141 0
	mov	eax, 0
L8:
LBE4:
	.loc 2 142 0
	leave
	.cfi_restore 5
	.cfi_def_cfa 4, 4
	ret
	.cfi_endproc
LFE1767:
	.section .rdata,"dr"
LC2:
	.ascii "SEH: throw link error!\12\0"
	.text
	.globl	__ZN3seh18__throw_magic_linkEv@0
	.def	__ZN3seh18__throw_magic_linkEv@0;	.scl	2;	.type	32;	.endef
__ZN3seh18__throw_magic_linkEv@0:
LFB1768:
	.loc 2 152 0
	.cfi_startproc
	push	ebp
	.cfi_def_cfa_offset 8
	.cfi_offset 5, -8
	mov	ebp, esp
	.cfi_def_cfa_register 5
	sub	esp, 40
LBB5:
	.loc 2 153 0
/APP
 # 153 "seh.h" 1
	nop
 # 0 "" 2
	.loc 2 158 0
 # 158 "seh.h" 1
	mov eax,[ebp+0x28];
 # 0 "" 2
/NO_APP
	mov	DWORD PTR [ebp-12], eax
	.loc 2 159 0
	cmp	DWORD PTR [ebp-12], 0
	jle	L11
	.loc 2 160 0
	mov	eax, DWORD PTR [ebp-12]
	jmp	L13
L11:
	.loc 2 169 0
	mov	DWORD PTR [esp], OFFSET FLAT:LC2
	call	__ZL6printfPKcz
	.loc 2 170 0
	mov	DWORD PTR [esp], 8
	call	___cxa_allocate_exception
	mov	DWORD PTR [eax], 0
	mov	DWORD PTR [eax+4], 0
	mov	DWORD PTR [esp+8], 0
	mov	DWORD PTR [esp+4], OFFSET FLAT:__ZTI13SEH_EXCEPTION
	mov	DWORD PTR [esp], eax
	call	___cxa_throw
L13:
LBE5:
	.loc 2 174 0 discriminator 1
	leave
	.cfi_restore 5
	.cfi_def_cfa 4, 4
	ret
	.cfi_endproc
LFE1768:
	.globl	__ZN3seh17__get_catch_indexEv
	.def	__ZN3seh17__get_catch_indexEv;	.scl	2;	.type	32;	.endef
__ZN3seh17__get_catch_indexEv:
LFB1769:
	.loc 2 176 0
	.cfi_startproc
	push	ebp
	.cfi_def_cfa_offset 8
	.cfi_offset 5, -8
	mov	ebp, esp
	.cfi_def_cfa_register 5
	sub	esp, 16
LBB6:
	.loc 2 177 0
/APP
 # 177 "seh.h" 1
	nop
 # 0 "" 2
	.loc 2 182 0
 # 182 "seh.h" 1
	mov eax,[ebp+0x28];
 # 0 "" 2
/NO_APP
	mov	DWORD PTR [ebp-4], eax
	.loc 2 183 0
	mov	eax, DWORD PTR [ebp-4]
LBE6:
	.loc 2 187 0
	leave
	.cfi_restore 5
	.cfi_def_cfa 4, 4
	ret
	.cfi_endproc
LFE1769:
	.globl	__ZN3seh17__set_catch_indexEi@4
	.def	__ZN3seh17__set_catch_indexEi@4;	.scl	2;	.type	32;	.endef
__ZN3seh17__set_catch_indexEi@4:
LFB1770:
	.loc 2 189 0
	.cfi_startproc
	push	ebp
	.cfi_def_cfa_offset 8
	.cfi_offset 5, -8
	mov	ebp, esp
	.cfi_def_cfa_register 5
	.loc 2 190 0
/APP
 # 190 "seh.h" 1
	nop
 # 0 "" 2
	.loc 2 194 0
/NO_APP
	mov	eax, DWORD PTR [ebp+8]
/APP
 # 194 "seh.h" 1
	mov [ebp+0x28],eax;
 # 0 "" 2
	.loc 2 198 0
/NO_APP
	pop	ebp
	.cfi_restore 5
	.cfi_def_cfa 4, 4
	ret	4
	.cfi_endproc
LFE1770:
	.globl	__Z10recur_testv
	.def	__Z10recur_testv;	.scl	2;	.type	32;	.endef
__Z10recur_testv:
LFB1771:
	.file 3 "main.cpp"
	.loc 3 23 0
	.cfi_startproc
	push	ebp
	.cfi_def_cfa_offset 8
	.cfi_offset 5, -8
	mov	ebp, esp
	.cfi_def_cfa_register 5
	sub	esp, 8
	.loc 3 24 0
	call	__Z10recur_testv
	.loc 3 25 0
	leave
	.cfi_restore 5
	.cfi_def_cfa 4, 4
	ret
	.cfi_endproc
LFE1771:
	.section .rdata,"dr"
LC3:
	.ascii "Exception \0"
LC4:
	.ascii " in \0"
	.text
	.globl	__Z15ExceptionFilterP19_EXCEPTION_POINTERS@4
	.def	__Z15ExceptionFilterP19_EXCEPTION_POINTERS@4;	.scl	2;	.type	32;	.endef
__Z15ExceptionFilterP19_EXCEPTION_POINTERS@4:
LFB1772:
	.loc 3 27 0
	.cfi_startproc
	push	ebp
	.cfi_def_cfa_offset 8
	.cfi_offset 5, -8
	mov	ebp, esp
	.cfi_def_cfa_register 5
	push	esi
	push	ebx
	sub	esp, 32
	.cfi_offset 6, -12
	.cfi_offset 3, -16
LBB7:
	.loc 3 28 0
	mov	eax, DWORD PTR [ebp+8]
	mov	eax, DWORD PTR [eax+4]
	mov	DWORD PTR [ebp-12], eax
	.loc 3 29 0
	mov	eax, DWORD PTR [ebp+8]
	mov	eax, DWORD PTR [eax]
	mov	DWORD PTR [ebp-16], eax
	.loc 3 30 0
	mov	eax, DWORD PTR [ebp-16]
	mov	ebx, DWORD PTR [eax+12]
	mov	eax, DWORD PTR [ebp-16]
	mov	esi, DWORD PTR [eax]
	mov	DWORD PTR [esp], OFFSET FLAT:__ZSt4endlIcSt11char_traitsIcEERSt13basic_ostreamIT_T0_ES6_
	mov	ecx, OFFSET FLAT:__ZSt4cout
	call	__ZNSolsEPFRSoS_E
	sub	esp, 4
	mov	DWORD PTR [esp+4], OFFSET FLAT:LC3
	mov	DWORD PTR [esp], eax
	call	__ZStlsISt11char_traitsIcEERSt13basic_ostreamIcT_ES5_PKc
	mov	DWORD PTR [esp], esi
	mov	ecx, eax
	call	__ZNSolsEm
	sub	esp, 4
	mov	DWORD PTR [esp+4], OFFSET FLAT:LC4
	mov	DWORD PTR [esp], eax
	call	__ZStlsISt11char_traitsIcEERSt13basic_ostreamIcT_ES5_PKc
	mov	DWORD PTR [esp], ebx
	mov	ecx, eax
	call	__ZNSolsEPKv
	sub	esp, 4
	mov	DWORD PTR [esp], OFFSET FLAT:__ZSt4endlIcSt11char_traitsIcEERSt13basic_ostreamIT_T0_ES6_
	mov	ecx, eax
	call	__ZNSolsEPFRSoS_E
	sub	esp, 4
	.loc 3 33 0
	mov	DWORD PTR [esp], 1
	mov	eax, DWORD PTR __imp__SetErrorMode@4
	call	eax
	sub	esp, 4
	.loc 3 34 0
	mov	eax, 1
LBE7:
	.loc 3 35 0
	lea	esp, [ebp-8]
	pop	ebx
	.cfi_restore 3
	pop	esi
	.cfi_restore 6
	pop	ebp
	.cfi_restore 5
	.cfi_def_cfa 4, 4
	ret	4
	.cfi_endproc
LFE1772:
	.globl	__Z10throw_testv
	.def	__Z10throw_testv;	.scl	2;	.type	32;	.endef
__Z10throw_testv:
LFB1773:
	.loc 3 37 0
	.cfi_startproc
	push	ebp
	.cfi_def_cfa_offset 8
	.cfi_offset 5, -8
	mov	ebp, esp
	.cfi_def_cfa_register 5
	sub	esp, 24
	.loc 3 38 0
	mov	DWORD PTR [esp], 8
	call	___cxa_allocate_exception
	mov	DWORD PTR [eax], 0
	mov	DWORD PTR [eax+4], 0
	mov	DWORD PTR [esp+8], 0
	mov	DWORD PTR [esp+4], OFFSET FLAT:__ZTI13SEH_EXCEPTION
	mov	DWORD PTR [esp], eax
	call	___cxa_throw
	.cfi_endproc
LFE1773:
	.globl	__Z13NPE_deep_testi
	.def	__Z13NPE_deep_testi;	.scl	2;	.type	32;	.endef
__Z13NPE_deep_testi:
LFB1774:
	.loc 3 41 0
	.cfi_startproc
	push	ebp
	.cfi_def_cfa_offset 8
	.cfi_offset 5, -8
	mov	ebp, esp
	.cfi_def_cfa_register 5
	sub	esp, 24
	.loc 3 42 0
	cmp	DWORD PTR [ebp+8], 0
	jne	L22
	.loc 3 43 0
	mov	eax, 0
	mov	BYTE PTR [eax], 0
	jmp	L21
L22:
	.loc 3 45 0
	sub	DWORD PTR [ebp+8], 1
	.loc 3 46 0
	mov	eax, DWORD PTR [ebp+8]
	mov	DWORD PTR [esp], eax
	call	__Z13NPE_deep_testi
L21:
	.loc 3 49 0
	leave
	.cfi_restore 5
	.cfi_def_cfa 4, 4
	ret
	.cfi_endproc
LFE1774:
	.globl	__Z8NPE_testv
	.def	__Z8NPE_testv;	.scl	2;	.type	32;	.endef
__Z8NPE_testv:
LFB1775:
	.loc 3 51 0
	.cfi_startproc
	push	ebp
	.cfi_def_cfa_offset 8
	.cfi_offset 5, -8
	mov	ebp, esp
	.cfi_def_cfa_register 5
	.loc 3 52 0
	mov	eax, 0
	mov	BYTE PTR [eax], 0
	.loc 3 54 0
	pop	ebp
	.cfi_restore 5
	.cfi_def_cfa 4, 4
	ret
	.cfi_endproc
LFE1775:
	.section .rdata,"dr"
LC5:
	.ascii "catch_test_0\0"
LC6:
	.ascii "catch_test\0"
	.def	___gxx_personality_sj0;	.scl	2;	.type	32;	.endef
	.def	__Unwind_SjLj_Register;	.scl	2;	.type	32;	.endef
	.def	__Unwind_SjLj_Unregister;	.scl	2;	.type	32;	.endef
	.text
	.globl	__Z10catch_testv
	.def	__Z10catch_testv;	.scl	2;	.type	32;	.endef
__Z10catch_testv:
LFB1776:
	.loc 3 56 0
	.cfi_startproc
	.cfi_personality 0,___gxx_personality_sj0
	.cfi_lsda 0,LLSDA1776
	push	ebp
	.cfi_def_cfa_offset 8
	.cfi_offset 5, -8
	mov	ebp, esp
	.cfi_def_cfa_register 5
	push	edi
	push	esi
	push	ebx
	sub	esp, 92
	.cfi_offset 7, -12
	.cfi_offset 6, -16
	.cfi_offset 3, -20
	mov	DWORD PTR [ebp-52], OFFSET FLAT:___gxx_personality_sj0
	mov	DWORD PTR [ebp-48], OFFSET FLAT:LLSDA1776
	lea	eax, [ebp-44]
	lea	ecx, [ebp-24]
	mov	DWORD PTR [eax], ecx
	mov	edx, OFFSET FLAT:L30
	mov	DWORD PTR [eax+4], edx
	mov	DWORD PTR [eax+8], esp
	lea	eax, [ebp-76]
	mov	DWORD PTR [esp], eax
	call	__Unwind_SjLj_Register
	.loc 3 60 0
	mov	DWORD PTR [ebp-72], 1
	call	__Z10throw_testv
L27:
	.loc 3 66 0
	mov	DWORD PTR [ebp-72], 2
	call	__Z10throw_testv
	.loc 3 70 0
	jmp	L33
L30:
	lea	ebp, [ebp+24]
	mov	edx, DWORD PTR [ebp-68]
	mov	eax, DWORD PTR [ebp-72]
	test	eax, eax
	je	L31
	sub	eax, 1
	test	eax, eax
	je	L32
	sub	eax, 1
	ud2
L31:
	mov	eax, edx
	.loc 3 61 0
	mov	DWORD PTR [esp], eax
	call	___cxa_begin_catch
	.loc 3 62 0
	mov	DWORD PTR [esp], OFFSET FLAT:LC5
	call	__ZL6printfPKcz
	.loc 3 61 0
	mov	DWORD PTR [ebp-72], -1
	call	___cxa_end_catch
	jmp	L27
L32:
	mov	eax, edx
	.loc 3 67 0
	mov	DWORD PTR [esp], eax
	call	___cxa_begin_catch
	.loc 3 68 0
	mov	DWORD PTR [esp], OFFSET FLAT:LC6
	call	__ZL6printfPKcz
	.loc 3 67 0
	mov	DWORD PTR [ebp-72], -1
	call	___cxa_end_catch
L33:
	.loc 3 70 0
	nop
	lea	eax, [ebp-76]
	mov	DWORD PTR [esp], eax
	call	__Unwind_SjLj_Unregister
	add	esp, 92
	pop	ebx
	.cfi_restore 3
	pop	esi
	.cfi_restore 6
	pop	edi
	.cfi_restore 7
	pop	ebp
	.cfi_restore 5
	.cfi_def_cfa 4, 4
	ret
	.cfi_endproc
LFE1776:
	.section	.gcc_except_table,"w"
	.align 4
LLSDA1776:
	.byte	0xff
	.byte	0
	.uleb128 LLSDATT1776-LLSDATTD1776
LLSDATTD1776:
	.byte	0x1
	.uleb128 LLSDACSE1776-LLSDACSB1776
LLSDACSB1776:
	.uleb128 0
	.uleb128 0x1
	.uleb128 0x1
	.uleb128 0x1
LLSDACSE1776:
	.byte	0x1
	.byte	0
	.align 4
	.long	0
LLSDATT1776:
	.text
	.section .rdata,"dr"
LC7:
	.ascii "\12test2!\12\0"
LC8:
	.ascii "try2_1!\12\0"
LC9:
	.ascii "except2_1!\12\0"
LC10:
	.ascii "except2_0!\12\0"
	.text
	.globl	__Z6test_2v
	.def	__Z6test_2v;	.scl	2;	.type	32;	.endef
__Z6test_2v:
LFB1777:
	.loc 3 72 0
	.cfi_startproc
	.cfi_personality 0,___gxx_personality_sj0
	.cfi_lsda 0,LLSDA1777
	push	ebp
	.cfi_def_cfa_offset 8
	.cfi_offset 5, -8
	mov	ebp, esp
	.cfi_def_cfa_register 5
	push	edi
	push	esi
	push	ebx
	sub	esp, 156
	.cfi_offset 7, -12
	.cfi_offset 6, -16
	.cfi_offset 3, -20
	mov	DWORD PTR [ebp-116], OFFSET FLAT:___gxx_personality_sj0
	mov	DWORD PTR [ebp-112], OFFSET FLAT:LLSDA1777
	lea	eax, [ebp-108]
	lea	ebx, [ebp-24]
	mov	DWORD PTR [eax], ebx
	mov	edx, OFFSET FLAT:L45
	mov	DWORD PTR [eax+4], edx
	mov	DWORD PTR [eax+8], esp
	lea	eax, [ebp-140]
	mov	DWORD PTR [esp], eax
	call	__Unwind_SjLj_Register
LBB8:
	.loc 3 73 0
	mov	DWORD PTR [esp], OFFSET FLAT:LC7
	call	__ZL6printfPKcz
LBB9:
	.loc 3 74 0
	mov	BYTE PTR [ebp-25], 1
	cmp	BYTE PTR [ebp-25], 0
	je	L35
LBB10:
	.loc 3 74 0 is_stmt 0 discriminator 1
	mov	DWORD PTR [ebp-52], 0
	mov	DWORD PTR [ebp-48], 0
LBB11:
/APP
 # 74 "main.cpp" 1
	mov eax,fs:[0];
 # 0 "" 2
/NO_APP
	mov	DWORD PTR [ebp-32], eax
	mov	eax, DWORD PTR [ebp-32]
	mov	DWORD PTR [ebp-52], eax
	mov	DWORD PTR [ebp-48], OFFSET FLAT:__ZN3seh14except_handlerEP17_EXCEPTION_RECORDP30_EXCEPTION_REGISTRATION_RECORDP8_CONTEXTPS3_
	lea	eax, [ebp-52]
/APP
 # 74 "main.cpp" 1
	mov fs:[0], eax;
 # 0 "" 2
/NO_APP
	call	__ZN3seh17__get_catch_indexEv
	mov	DWORD PTR [ebp-36], eax
	mov	DWORD PTR [ebp-136], 1
	call	__ZN3seh18__throw_magic_linkEv@0
LBB12:
LBB13:
	.loc 3 75 0 is_stmt 1
	mov	BYTE PTR [ebp-26], 1
	cmp	BYTE PTR [ebp-26], 0
	je	L36
LBB14:
	.loc 3 75 0 is_stmt 0 discriminator 1
	mov	DWORD PTR [ebp-60], 0
	mov	DWORD PTR [ebp-56], 0
LBB15:
/APP
 # 75 "main.cpp" 1
	mov eax,fs:[0];
 # 0 "" 2
/NO_APP
	mov	DWORD PTR [ebp-40], eax
	mov	eax, DWORD PTR [ebp-40]
	mov	DWORD PTR [ebp-60], eax
	mov	DWORD PTR [ebp-56], OFFSET FLAT:__ZN3seh14except_handlerEP17_EXCEPTION_RECORDP30_EXCEPTION_REGISTRATION_RECORDP8_CONTEXTPS3_
	lea	eax, [ebp-60]
/APP
 # 75 "main.cpp" 1
	mov fs:[0], eax;
 # 0 "" 2
/NO_APP
	call	__ZN3seh17__get_catch_indexEv
	mov	DWORD PTR [ebp-44], eax
	mov	DWORD PTR [ebp-136], 2
	call	__ZN3seh18__throw_magic_linkEv@0
	.loc 3 77 0 is_stmt 1
	mov	DWORD PTR [esp], OFFSET FLAT:LC8
	call	__ZL6printfPKcz
	.loc 3 79 0
	mov	eax, DWORD PTR [ebp-44]
	mov	DWORD PTR [esp], eax
	call	__ZN3seh17__set_catch_indexEi@4
	sub	esp, 4
	mov	eax, DWORD PTR [ebp-60]
/APP
 # 79 "main.cpp" 1
	mov fs:[0], eax;
 # 0 "" 2
/NO_APP
LBE15:
LBE14:
	jmp	L37
L36:
	movzx	eax, BYTE PTR [ebp-26]
	xor	eax, 1
	test	al, al
	je	L37
	.loc 3 81 0
	mov	DWORD PTR [esp], OFFSET FLAT:LC9
	call	__ZL6printfPKcz
L37:
LBE13:
	.loc 3 83 0
	call	__Z8NPE_testv
LBE12:
	.loc 3 85 0
	mov	eax, DWORD PTR [ebp-36]
	mov	DWORD PTR [esp], eax
	call	__ZN3seh17__set_catch_indexEi@4
	sub	esp, 4
	mov	eax, DWORD PTR [ebp-52]
/APP
 # 85 "main.cpp" 1
	mov fs:[0], eax;
 # 0 "" 2
/NO_APP
LBE11:
LBE10:
	jmp	L48
L35:
	movzx	eax, BYTE PTR [ebp-25]
	xor	eax, 1
	test	al, al
	je	L48
	.loc 3 86 0
	mov	DWORD PTR [esp], OFFSET FLAT:LC10
	call	__ZL6printfPKcz
	jmp	L48
L47:
	mov	eax, ecx
	mov	ecx, edx
	cmp	ecx, 1
	je	L41
	jmp	L42
L41:
LBB22:
LBB20:
LBB19:
LBB18:
LBB17:
LBB16:
	.loc 3 79 0
	mov	DWORD PTR [esp], eax
	call	___cxa_begin_catch
	mov	edx, DWORD PTR [eax+4]
	mov	eax, DWORD PTR [eax]
	mov	DWORD PTR [ebp-68], eax
	mov	DWORD PTR [ebp-64], edx
	mov	eax, DWORD PTR [ebp-60]
/APP
 # 79 "main.cpp" 1
	mov fs:[0], eax;
 # 0 "" 2
/NO_APP
	mov	BYTE PTR [ebp-26], 0
	nop
	call	___cxa_end_catch
	jmp	L36
L45:
	lea	ebp, [ebp+24]
	mov	ecx, DWORD PTR [ebp-132]
	mov	edx, DWORD PTR [ebp-128]
	mov	eax, DWORD PTR [ebp-136]
	test	eax, eax
	je	L46
	sub	eax, 1
	test	eax, eax
	je	L47
	sub	eax, 1
	ud2
L46:
	mov	eax, ecx
L42:
	cmp	edx, 1
	je	L44
	mov	DWORD PTR [esp], eax
	mov	DWORD PTR [ebp-136], -1
	call	__Unwind_SjLj_Resume
L44:
LBE16:
LBE17:
LBE18:
LBE19:
LBE20:
LBB21:
	.loc 3 85 0
	mov	DWORD PTR [esp], eax
	call	___cxa_begin_catch
	mov	edx, DWORD PTR [eax+4]
	mov	eax, DWORD PTR [eax]
	mov	DWORD PTR [ebp-76], eax
	mov	DWORD PTR [ebp-72], edx
	mov	eax, DWORD PTR [ebp-52]
/APP
 # 85 "main.cpp" 1
	mov fs:[0], eax;
 # 0 "" 2
/NO_APP
	mov	BYTE PTR [ebp-25], 0
	nop
	call	___cxa_end_catch
	jmp	L35
L48:
	lea	eax, [ebp-140]
	mov	DWORD PTR [esp], eax
	call	__Unwind_SjLj_Unregister
LBE21:
LBE22:
LBE9:
LBE8:
	.loc 3 88 0
	lea	esp, [ebp-12]
	pop	ebx
	.cfi_restore 3
	pop	esi
	.cfi_restore 6
	pop	edi
	.cfi_restore 7
	pop	ebp
	.cfi_restore 5
	.cfi_def_cfa 4, 4
	ret
	.cfi_endproc
LFE1777:
	.section	.gcc_except_table,"w"
	.align 4
LLSDA1777:
	.byte	0xff
	.byte	0
	.uleb128 LLSDATT1777-LLSDATTD1777
LLSDATTD1777:
	.byte	0x1
	.uleb128 LLSDACSE1777-LLSDACSB1777
LLSDACSB1777:
	.uleb128 0
	.uleb128 0x1
	.uleb128 0x1
	.uleb128 0x3
LLSDACSE1777:
	.byte	0x1
	.byte	0
	.byte	0x1
	.byte	0x7d
	.align 4
	.long	__ZTI13SEH_EXCEPTION
LLSDATT1777:
	.text
	.def	___main;	.scl	2;	.type	32;	.endef
	.section .rdata,"dr"
LC11:
	.ascii "\12test1!\12\0"
LC12:
	.ascii "except1!\12\0"
LC13:
	.ascii "\12test3:!\12\0"
LC14:
	.ascii "try3_3!\12\0"
LC15:
	.ascii "except3_3!\12\0"
LC16:
	.ascii "except3_2!\12\0"
LC17:
	.ascii "except3_1!\12\0"
LC18:
	.ascii "except3_0!\12\0"
	.text
	.globl	_main
	.def	_main;	.scl	2;	.type	32;	.endef
_main:
LFB1778:
	.loc 3 90 0
	.cfi_startproc
	.cfi_personality 0,___gxx_personality_sj0
	.cfi_lsda 0,LLSDA1778
	lea	ecx, [esp+4]
	.cfi_def_cfa 1, 0
	and	esp, -16
	push	DWORD PTR [ecx-4]
	push	ebp
	.cfi_escape 0x10,0x5,0x2,0x75,0
	mov	ebp, esp
	push	edi
	push	esi
	push	ebx
	push	ecx
	.cfi_escape 0xf,0x3,0x75,0x70,0x6
	.cfi_escape 0x10,0x7,0x2,0x75,0x7c
	.cfi_escape 0x10,0x6,0x2,0x75,0x78
	.cfi_escape 0x10,0x3,0x2,0x75,0x74
	sub	esp, 216
	mov	DWORD PTR [ebp-180], OFFSET FLAT:___gxx_personality_sj0
	mov	DWORD PTR [ebp-176], OFFSET FLAT:LLSDA1778
	lea	eax, [ebp-172]
	lea	ebx, [ebp-24]
	mov	DWORD PTR [eax], ebx
	mov	edx, OFFSET FLAT:L76
	mov	DWORD PTR [eax+4], edx
	mov	DWORD PTR [eax+8], esp
	lea	eax, [ebp-204]
	mov	DWORD PTR [esp], eax
	call	__Unwind_SjLj_Register
	.loc 3 90 0
	call	___main
LBB23:
	.loc 3 91 0
/APP
 # 91 "main.cpp" 1
	nop
 # 0 "" 2
	.loc 3 92 0
 # 92 "main.cpp" 1
	nop
 # 0 "" 2
	.loc 3 93 0
 # 93 "main.cpp" 1
	nop
 # 0 "" 2
	.loc 3 99 0
/NO_APP
	mov	DWORD PTR [esp], OFFSET FLAT:LC11
	call	__ZL6printfPKcz
LBB24:
	.loc 3 100 0
	mov	BYTE PTR [ebp-25], 1
	cmp	BYTE PTR [ebp-25], 0
	je	L50
LBB25:
	.loc 3 100 0 is_stmt 0 discriminator 1
	mov	DWORD PTR [ebp-80], 0
	mov	DWORD PTR [ebp-76], 0
LBB26:
/APP
 # 100 "main.cpp" 1
	mov eax,fs:[0];
 # 0 "" 2
/NO_APP
	mov	DWORD PTR [ebp-36], eax
	mov	eax, DWORD PTR [ebp-36]
	mov	DWORD PTR [ebp-80], eax
	mov	DWORD PTR [ebp-76], OFFSET FLAT:__ZN3seh14except_handlerEP17_EXCEPTION_RECORDP30_EXCEPTION_REGISTRATION_RECORDP8_CONTEXTPS3_
	lea	eax, [ebp-80]
/APP
 # 100 "main.cpp" 1
	mov fs:[0], eax;
 # 0 "" 2
/NO_APP
	call	__ZN3seh17__get_catch_indexEv
	mov	DWORD PTR [ebp-40], eax
	mov	DWORD PTR [ebp-200], 1
	call	__ZN3seh18__throw_magic_linkEv@0
	.loc 3 101 0 is_stmt 1
	call	__Z10throw_testv
	.loc 3 103 0
	mov	eax, DWORD PTR [ebp-40]
	mov	DWORD PTR [esp], eax
	call	__ZN3seh17__set_catch_indexEi@4
	sub	esp, 4
	mov	eax, DWORD PTR [ebp-80]
/APP
 # 103 "main.cpp" 1
	mov fs:[0], eax;
 # 0 "" 2
/NO_APP
LBE26:
LBE25:
	jmp	L51
L50:
	movzx	eax, BYTE PTR [ebp-25]
	xor	eax, 1
	test	al, al
	je	L51
	.loc 3 104 0
	mov	DWORD PTR [esp], OFFSET FLAT:LC12
	call	__ZL6printfPKcz
L51:
LBE24:
	.loc 3 120 0
	mov	DWORD PTR [ebp-200], -1
	call	__Z6test_2v
	.loc 3 123 0
	mov	DWORD PTR [esp], OFFSET FLAT:LC13
	call	__ZL6printfPKcz
LBB29:
	.loc 3 124 0
	mov	BYTE PTR [ebp-26], 1
	cmp	BYTE PTR [ebp-26], 0
	je	L52
LBB30:
	.loc 3 124 0 is_stmt 0 discriminator 1
	mov	DWORD PTR [ebp-96], 0
	mov	DWORD PTR [ebp-92], 0
LBB31:
/APP
 # 124 "main.cpp" 1
	mov eax,fs:[0];
 # 0 "" 2
/NO_APP
	mov	DWORD PTR [ebp-44], eax
	mov	eax, DWORD PTR [ebp-44]
	mov	DWORD PTR [ebp-96], eax
	mov	DWORD PTR [ebp-92], OFFSET FLAT:__ZN3seh14except_handlerEP17_EXCEPTION_RECORDP30_EXCEPTION_REGISTRATION_RECORDP8_CONTEXTPS3_
	lea	eax, [ebp-96]
/APP
 # 124 "main.cpp" 1
	mov fs:[0], eax;
 # 0 "" 2
/NO_APP
	call	__ZN3seh17__get_catch_indexEv
	mov	DWORD PTR [ebp-48], eax
	mov	DWORD PTR [ebp-200], 2
	call	__ZN3seh18__throw_magic_linkEv@0
LBB32:
LBB33:
	.loc 3 125 0 is_stmt 1
	mov	BYTE PTR [ebp-27], 1
	cmp	BYTE PTR [ebp-27], 0
	je	L53
LBB34:
	.loc 3 125 0 is_stmt 0 discriminator 1
	mov	DWORD PTR [ebp-104], 0
	mov	DWORD PTR [ebp-100], 0
LBB35:
/APP
 # 125 "main.cpp" 1
	mov eax,fs:[0];
 # 0 "" 2
/NO_APP
	mov	DWORD PTR [ebp-52], eax
	mov	eax, DWORD PTR [ebp-52]
	mov	DWORD PTR [ebp-104], eax
	mov	DWORD PTR [ebp-100], OFFSET FLAT:__ZN3seh14except_handlerEP17_EXCEPTION_RECORDP30_EXCEPTION_REGISTRATION_RECORDP8_CONTEXTPS3_
	lea	eax, [ebp-104]
/APP
 # 125 "main.cpp" 1
	mov fs:[0], eax;
 # 0 "" 2
/NO_APP
	call	__ZN3seh17__get_catch_indexEv
	mov	DWORD PTR [ebp-56], eax
	mov	DWORD PTR [ebp-200], 3
	call	__ZN3seh18__throw_magic_linkEv@0
LBB36:
LBB37:
	.loc 3 127 0 is_stmt 1
	mov	BYTE PTR [ebp-28], 1
	cmp	BYTE PTR [ebp-28], 0
	je	L54
LBB38:
	.loc 3 127 0 is_stmt 0 discriminator 1
	mov	DWORD PTR [ebp-112], 0
	mov	DWORD PTR [ebp-108], 0
LBB39:
/APP
 # 127 "main.cpp" 1
	mov eax,fs:[0];
 # 0 "" 2
/NO_APP
	mov	DWORD PTR [ebp-60], eax
	mov	eax, DWORD PTR [ebp-60]
	mov	DWORD PTR [ebp-112], eax
	mov	DWORD PTR [ebp-108], OFFSET FLAT:__ZN3seh14except_handlerEP17_EXCEPTION_RECORDP30_EXCEPTION_REGISTRATION_RECORDP8_CONTEXTPS3_
	lea	eax, [ebp-112]
/APP
 # 127 "main.cpp" 1
	mov fs:[0], eax;
 # 0 "" 2
/NO_APP
	call	__ZN3seh17__get_catch_indexEv
	mov	DWORD PTR [ebp-64], eax
	mov	DWORD PTR [ebp-200], 4
	call	__ZN3seh18__throw_magic_linkEv@0
LBB40:
LBB41:
	.loc 3 129 0 is_stmt 1
	mov	BYTE PTR [ebp-29], 1
	cmp	BYTE PTR [ebp-29], 0
	je	L55
LBB42:
	.loc 3 129 0 is_stmt 0 discriminator 1
	mov	DWORD PTR [ebp-120], 0
	mov	DWORD PTR [ebp-116], 0
LBB43:
/APP
 # 129 "main.cpp" 1
	mov eax,fs:[0];
 # 0 "" 2
/NO_APP
	mov	DWORD PTR [ebp-68], eax
	mov	eax, DWORD PTR [ebp-68]
	mov	DWORD PTR [ebp-120], eax
	mov	DWORD PTR [ebp-116], OFFSET FLAT:__ZN3seh14except_handlerEP17_EXCEPTION_RECORDP30_EXCEPTION_REGISTRATION_RECORDP8_CONTEXTPS3_
	lea	eax, [ebp-120]
/APP
 # 129 "main.cpp" 1
	mov fs:[0], eax;
 # 0 "" 2
/NO_APP
	call	__ZN3seh17__get_catch_indexEv
	mov	DWORD PTR [ebp-72], eax
	mov	DWORD PTR [ebp-200], 5
	call	__ZN3seh18__throw_magic_linkEv@0
	.loc 3 131 0 is_stmt 1
	mov	DWORD PTR [esp], OFFSET FLAT:LC14
	call	__ZL6printfPKcz
	.loc 3 133 0
	mov	eax, DWORD PTR [ebp-72]
	mov	DWORD PTR [esp], eax
	call	__ZN3seh17__set_catch_indexEi@4
	sub	esp, 4
	mov	eax, DWORD PTR [ebp-120]
/APP
 # 133 "main.cpp" 1
	mov fs:[0], eax;
 # 0 "" 2
/NO_APP
LBE43:
LBE42:
	jmp	L56
L55:
	movzx	eax, BYTE PTR [ebp-29]
	xor	eax, 1
	test	al, al
	je	L56
	.loc 3 135 0
	mov	DWORD PTR [esp], OFFSET FLAT:LC15
	call	__ZL6printfPKcz
L56:
LBE41:
	.loc 3 137 0
	call	__Z8NPE_testv
LBE40:
	.loc 3 139 0
	mov	eax, DWORD PTR [ebp-64]
	mov	DWORD PTR [esp], eax
	call	__ZN3seh17__set_catch_indexEi@4
	sub	esp, 4
	mov	eax, DWORD PTR [ebp-112]
/APP
 # 139 "main.cpp" 1
	mov fs:[0], eax;
 # 0 "" 2
/NO_APP
LBE39:
LBE38:
	jmp	L57
L54:
	movzx	eax, BYTE PTR [ebp-28]
	xor	eax, 1
	test	al, al
	je	L57
	.loc 3 141 0
	mov	DWORD PTR [esp], OFFSET FLAT:LC16
	call	__ZL6printfPKcz
L57:
LBE37:
	.loc 3 143 0
	call	__Z8NPE_testv
LBE36:
	.loc 3 145 0
	mov	eax, DWORD PTR [ebp-56]
	mov	DWORD PTR [esp], eax
	call	__ZN3seh17__set_catch_indexEi@4
	sub	esp, 4
	mov	eax, DWORD PTR [ebp-104]
/APP
 # 145 "main.cpp" 1
	mov fs:[0], eax;
 # 0 "" 2
/NO_APP
LBE35:
LBE34:
	jmp	L58
L53:
	movzx	eax, BYTE PTR [ebp-27]
	xor	eax, 1
	test	al, al
	je	L58
	.loc 3 147 0
	mov	DWORD PTR [esp], OFFSET FLAT:LC17
	call	__ZL6printfPKcz
L58:
LBE33:
	.loc 3 149 0
	call	__Z8NPE_testv
LBE32:
	.loc 3 151 0
	mov	eax, DWORD PTR [ebp-48]
	mov	DWORD PTR [esp], eax
	call	__ZN3seh17__set_catch_indexEi@4
	sub	esp, 4
	mov	eax, DWORD PTR [ebp-96]
/APP
 # 151 "main.cpp" 1
	mov fs:[0], eax;
 # 0 "" 2
/NO_APP
LBE31:
LBE30:
	jmp	L59
L52:
	movzx	eax, BYTE PTR [ebp-26]
	xor	eax, 1
	test	al, al
	je	L59
	.loc 3 152 0
	mov	DWORD PTR [esp], OFFSET FLAT:LC18
	call	__ZL6printfPKcz
L59:
LBE29:
LBE23:
	.loc 3 157 0
	mov	eax, 0
	mov	DWORD PTR [ebp-208], eax
	jmp	L82
L76:
	lea	ebp, [ebp+24]
	mov	ecx, DWORD PTR [ebp-196]
	mov	edx, DWORD PTR [ebp-192]
	mov	eax, DWORD PTR [ebp-200]
	test	eax, eax
	je	L77
	sub	eax, 1
	test	eax, eax
	je	L78
	sub	eax, 1
	test	eax, eax
	je	L79
	sub	eax, 1
	test	eax, eax
	je	L80
	sub	eax, 1
	test	eax, eax
	je	L81
	sub	eax, 1
	ud2
L77:
	mov	eax, ecx
	cmp	edx, 1
	je	L63
	mov	DWORD PTR [esp], eax
	mov	DWORD PTR [ebp-200], -1
	call	__Unwind_SjLj_Resume
L63:
LBB63:
LBB61:
LBB28:
LBB27:
	.loc 3 103 0
	mov	DWORD PTR [esp], eax
	call	___cxa_begin_catch
	mov	edx, DWORD PTR [eax+4]
	mov	eax, DWORD PTR [eax]
	mov	DWORD PTR [ebp-88], eax
	mov	DWORD PTR [ebp-84], edx
	mov	eax, DWORD PTR [ebp-80]
/APP
 # 103 "main.cpp" 1
	mov fs:[0], eax;
 # 0 "" 2
/NO_APP
	mov	BYTE PTR [ebp-25], 0
	nop
	call	___cxa_end_catch
	jmp	L50
L81:
	mov	eax, ecx
	mov	ecx, edx
	cmp	ecx, 1
	je	L66
	jmp	L67
L66:
LBE27:
LBE28:
LBE61:
LBB62:
LBB60:
LBB58:
LBB57:
LBB56:
LBB55:
LBB53:
LBB52:
LBB51:
LBB50:
LBB48:
LBB47:
LBB46:
LBB45:
LBB44:
	.loc 3 133 0
	mov	DWORD PTR [esp], eax
	call	___cxa_begin_catch
	mov	edx, DWORD PTR [eax+4]
	mov	eax, DWORD PTR [eax]
	mov	DWORD PTR [ebp-128], eax
	mov	DWORD PTR [ebp-124], edx
	mov	eax, DWORD PTR [ebp-120]
/APP
 # 133 "main.cpp" 1
	mov fs:[0], eax;
 # 0 "" 2
/NO_APP
	mov	BYTE PTR [ebp-29], 0
	nop
	call	___cxa_end_catch
	jmp	L55
L80:
	mov	eax, ecx
L67:
	mov	ecx, edx
	cmp	ecx, 1
	je	L69
	jmp	L70
L69:
LBE44:
LBE45:
LBE46:
LBE47:
LBE48:
LBB49:
	.loc 3 139 0
	mov	DWORD PTR [esp], eax
	call	___cxa_begin_catch
	mov	edx, DWORD PTR [eax+4]
	mov	eax, DWORD PTR [eax]
	mov	DWORD PTR [ebp-136], eax
	mov	DWORD PTR [ebp-132], edx
	mov	eax, DWORD PTR [ebp-112]
/APP
 # 139 "main.cpp" 1
	mov fs:[0], eax;
 # 0 "" 2
/NO_APP
	mov	BYTE PTR [ebp-28], 0
	nop
	call	___cxa_end_catch
	jmp	L54
L79:
	mov	eax, ecx
L70:
	mov	ecx, edx
	cmp	ecx, 1
	je	L72
	jmp	L73
L72:
LBE49:
LBE50:
LBE51:
LBE52:
LBE53:
LBB54:
	.loc 3 145 0
	mov	DWORD PTR [esp], eax
	call	___cxa_begin_catch
	mov	edx, DWORD PTR [eax+4]
	mov	eax, DWORD PTR [eax]
	mov	DWORD PTR [ebp-144], eax
	mov	DWORD PTR [ebp-140], edx
	mov	eax, DWORD PTR [ebp-104]
/APP
 # 145 "main.cpp" 1
	mov fs:[0], eax;
 # 0 "" 2
/NO_APP
	mov	BYTE PTR [ebp-27], 0
	nop
	call	___cxa_end_catch
	jmp	L53
L78:
	mov	eax, ecx
L73:
	cmp	edx, 1
	je	L75
	mov	DWORD PTR [esp], eax
	mov	DWORD PTR [ebp-200], -1
	call	__Unwind_SjLj_Resume
L75:
LBE54:
LBE55:
LBE56:
LBE57:
LBE58:
LBB59:
	.loc 3 151 0
	mov	DWORD PTR [esp], eax
	call	___cxa_begin_catch
	mov	edx, DWORD PTR [eax+4]
	mov	eax, DWORD PTR [eax]
	mov	DWORD PTR [ebp-152], eax
	mov	DWORD PTR [ebp-148], edx
	mov	eax, DWORD PTR [ebp-96]
/APP
 # 151 "main.cpp" 1
	mov fs:[0], eax;
 # 0 "" 2
/NO_APP
	mov	BYTE PTR [ebp-26], 0
	nop
	call	___cxa_end_catch
	jmp	L52
L82:
	lea	eax, [ebp-204]
	mov	DWORD PTR [esp], eax
	call	__Unwind_SjLj_Unregister
LBE59:
LBE60:
LBE62:
LBE63:
	.loc 3 157 0
	mov	eax, DWORD PTR [ebp-208]
	lea	esp, [ebp-16]
	pop	ecx
	.cfi_restore 1
	.cfi_def_cfa 1, 0
	pop	ebx
	.cfi_restore 3
	pop	esi
	.cfi_restore 6
	pop	edi
	.cfi_restore 7
	pop	ebp
	.cfi_restore 5
	lea	esp, [ecx-4]
	.cfi_def_cfa 4, 4
	ret
	.cfi_endproc
LFE1778:
	.section	.gcc_except_table,"w"
	.align 4
LLSDA1778:
	.byte	0xff
	.byte	0
	.uleb128 LLSDATT1778-LLSDATTD1778
LLSDATTD1778:
	.byte	0x1
	.uleb128 LLSDACSE1778-LLSDACSB1778
LLSDACSB1778:
	.uleb128 0
	.uleb128 0x1
	.uleb128 0x1
	.uleb128 0x1
	.uleb128 0x2
	.uleb128 0x3
	.uleb128 0x3
	.uleb128 0x5
	.uleb128 0x4
	.uleb128 0x7
LLSDACSE1778:
	.byte	0x1
	.byte	0
	.byte	0x1
	.byte	0x7d
	.byte	0x1
	.byte	0x7d
	.byte	0x1
	.byte	0x7d
	.align 4
	.long	__ZTI13SEH_EXCEPTION
LLSDATT1778:
	.text
	.globl	__ZTS13SEH_EXCEPTION
	.section	.rdata$_ZTS13SEH_EXCEPTION,"dr"
	.linkonce same_size
__ZTS13SEH_EXCEPTION:
	.ascii "13SEH_EXCEPTION\0"
	.globl	__ZTI13SEH_EXCEPTION
	.section	.rdata$_ZTI13SEH_EXCEPTION,"dr"
	.linkonce same_size
	.align 4
__ZTI13SEH_EXCEPTION:
	.long	__ZTVN10__cxxabiv117__class_type_infoE+8
	.long	__ZTS13SEH_EXCEPTION
	.text
	.def	___tcf_0;	.scl	3;	.type	32;	.endef
___tcf_0:
LFB2049:
	.file 4 "/usr/lib/gcc/i686-w64-mingw32/4.9.2/include/c++/iostream"
	.loc 4 74 0
	.cfi_startproc
	push	ebp
	.cfi_def_cfa_offset 8
	.cfi_offset 5, -8
	mov	ebp, esp
	.cfi_def_cfa_register 5
	sub	esp, 8
	.loc 4 74 0
	mov	ecx, OFFSET FLAT:__ZStL8__ioinit
	call	__ZNSt8ios_base4InitD1Ev
	leave
	.cfi_restore 5
	.cfi_def_cfa 4, 4
	ret
	.cfi_endproc
LFE2049:
	.def	__Z41__static_initialization_and_destruction_0ii;	.scl	3;	.type	32;	.endef
__Z41__static_initialization_and_destruction_0ii:
LFB2048:
	.loc 3 157 0
	.cfi_startproc
	push	ebp
	.cfi_def_cfa_offset 8
	.cfi_offset 5, -8
	mov	ebp, esp
	.cfi_def_cfa_register 5
	sub	esp, 24
	.loc 3 157 0
	cmp	DWORD PTR [ebp+8], 1
	jne	L84
	.loc 3 157 0 is_stmt 0 discriminator 1
	cmp	DWORD PTR [ebp+12], 65535
	jne	L84
	.loc 4 74 0 is_stmt 1
	mov	ecx, OFFSET FLAT:__ZStL8__ioinit
	call	__ZNSt8ios_base4InitC1Ev
	mov	DWORD PTR [esp], OFFSET FLAT:___tcf_0
	call	_atexit
L84:
	.loc 3 157 0
	leave
	.cfi_restore 5
	.cfi_def_cfa 4, 4
	ret
	.cfi_endproc
LFE2048:
	.def	__GLOBAL__sub_I__ZN3seh11originalSEHE;	.scl	3;	.type	32;	.endef
__GLOBAL__sub_I__ZN3seh11originalSEHE:
LFB2050:
	.loc 3 157 0
	.cfi_startproc
	push	ebp
	.cfi_def_cfa_offset 8
	.cfi_offset 5, -8
	mov	ebp, esp
	.cfi_def_cfa_register 5
	sub	esp, 24
	.loc 3 157 0
	mov	DWORD PTR [esp+4], 65535
	mov	DWORD PTR [esp], 1
	call	__Z41__static_initialization_and_destruction_0ii
	leave
	.cfi_restore 5
	.cfi_def_cfa 4, 4
	ret
	.cfi_endproc
LFE2050:
	.section	.ctors,"w"
	.align 4
	.long	__GLOBAL__sub_I__ZN3seh11originalSEHE
	.text
Letext0:
	.file 5 "/usr/i686-w64-mingw32/sys-root/mingw/include/crtdefs.h"
	.file 6 "/usr/i686-w64-mingw32/sys-root/mingw/include/locale.h"
	.file 7 "/usr/i686-w64-mingw32/sys-root/mingw/include/stdlib.h"
	.file 8 "/usr/lib/gcc/i686-w64-mingw32/4.9.2/include/c++/cstdlib"
	.file 9 "/usr/lib/gcc/i686-w64-mingw32/4.9.2/include/c++/cwchar"
	.file 10 "<built-in>"
	.file 11 "/usr/lib/gcc/i686-w64-mingw32/4.9.2/include/c++/bits/exception_ptr.h"
	.file 12 "/usr/lib/gcc/i686-w64-mingw32/4.9.2/include/c++/i686-w64-mingw32/bits/c++config.h"
	.file 13 "/usr/lib/gcc/i686-w64-mingw32/4.9.2/include/c++/bits/char_traits.h"
	.file 14 "/usr/lib/gcc/i686-w64-mingw32/4.9.2/include/c++/cstdint"
	.file 15 "/usr/lib/gcc/i686-w64-mingw32/4.9.2/include/c++/clocale"
	.file 16 "/usr/lib/gcc/i686-w64-mingw32/4.9.2/include/c++/cstdio"
	.file 17 "/usr/lib/gcc/i686-w64-mingw32/4.9.2/include/c++/bits/basic_string.h"
	.file 18 "/usr/lib/gcc/i686-w64-mingw32/4.9.2/include/c++/bits/basic_string.tcc"
	.file 19 "/usr/lib/gcc/i686-w64-mingw32/4.9.2/include/c++/bits/allocator.h"
	.file 20 "/usr/lib/gcc/i686-w64-mingw32/4.9.2/include/c++/initializer_list"
	.file 21 "/usr/lib/gcc/i686-w64-mingw32/4.9.2/include/c++/debug/debug.h"
	.file 22 "/usr/lib/gcc/i686-w64-mingw32/4.9.2/include/c++/bits/ios_base.h"
	.file 23 "/usr/lib/gcc/i686-w64-mingw32/4.9.2/include/c++/cwctype"
	.file 24 "/usr/lib/gcc/i686-w64-mingw32/4.9.2/include/c++/bits/stl_iterator_base_types.h"
	.file 25 "/usr/lib/gcc/i686-w64-mingw32/4.9.2/include/c++/iosfwd"
	.file 26 "/usr/lib/gcc/i686-w64-mingw32/4.9.2/include/c++/bits/predefined_ops.h"
	.file 27 "/usr/lib/gcc/i686-w64-mingw32/4.9.2/include/c++/ext/new_allocator.h"
	.file 28 "/usr/lib/gcc/i686-w64-mingw32/4.9.2/include/c++/ext/numeric_traits.h"
	.file 29 "/usr/lib/gcc/i686-w64-mingw32/4.9.2/include/c++/bits/stl_iterator.h"
	.file 30 "/usr/i686-w64-mingw32/sys-root/mingw/include/winnt.h"
	.file 31 "/usr/i686-w64-mingw32/sys-root/mingw/include/minwindef.h"
	.file 32 "/usr/i686-w64-mingw32/sys-root/mingw/include/wchar.h"
	.file 33 "/usr/i686-w64-mingw32/sys-root/mingw/include/swprintf.inl"
	.file 34 "/usr/i686-w64-mingw32/sys-root/mingw/include/string.h"
	.file 35 "/usr/i686-w64-mingw32/sys-root/mingw/include/stdint.h"
	.file 36 "/usr/lib/gcc/i686-w64-mingw32/4.9.2/include/c++/i686-w64-mingw32/bits/atomic_word.h"
	.file 37 "/usr/i686-w64-mingw32/sys-root/mingw/include/wctype.h"
	.file 38 "/usr/i686-w64-mingw32/sys-root/mingw/include/ctype.h"
	.file 39 "/usr/lib/gcc/i686-w64-mingw32/4.9.2/include/c++/bits/stl_pair.h"
	.file 40 "/usr/lib/gcc/i686-w64-mingw32/4.9.2/include/c++/i686-w64-mingw32/bits/gthr-default.h"